ccopy_reg
_reconstructor
p0
(c__main__
MemoryCard
p1
c__builtin__
object
p2
Ntp3
Rp4
(dp5
S'save1'
p6
g0
(c__main__
Save
p7
g2
Ntp8
Rp9
(dp10
S'scene_name'
p11
S'open'
p12
sS'party'
p13
g0
(c__main__
Party
p14
g2
Ntp15
Rp16
(dp17
S'hero4'
p18
g0
(c__main__
Theif
p19
g2
Ntp20
Rp21
(dp22
S'stats'
p23
(dp24
S'lev'
p25
I0
sS'mag'
p26
I0
sS'mdef'
p27
I0
sS'hp'
p28
I0
sS'job'
p29
S'Theif'
p30
sS'mp'
p31
I0
sS'defe'
p32
I0
sS'exp'
p33
I0
sS'speed'
p34
I0
sS'stre'
p35
I0
sS'name'
p36
S'GARCIA'
p37
ssS'lev'
p38
I0
sS'mdef'
p39
I0
sS'defe'
p40
I0
sS'hp'
p41
I0
sS'job'
p42
g30
sS'mp'
p43
I0
sS'mag'
p44
I0
sS'exp'
p45
I0
sS'speed'
p46
I0
sS'stre'
p47
I0
sS'name'
p48
g37
sbsS'hero1'
p49
g0
(c__main__
Warrior
p50
g2
Ntp51
Rp52
(dp53
g23
(dp54
g25
I0
sg26
I0
sg27
I0
sg28
I0
sg29
S'Warrior'
p55
sg31
I0
sg32
I0
sg33
I0
sg34
I0
sg35
I0
sg36
S'STEFAN'
p56
ssg38
I0
sg39
I0
sg40
I0
sg41
I0
sg42
g55
sg43
I0
sg44
I0
sg45
I0
sg46
I0
sg47
I0
sg48
g56
sbsS'hero3'
p57
g0
(c__main__
BlackMage
p58
g2
Ntp59
Rp60
(dp61
g23
(dp62
g25
I0
sg26
I0
sg27
I0
sg28
I0
sg29
S'BlackMage'
p63
sg31
I0
sg32
I0
sg33
I0
sg34
I0
sg35
I0
sg36
S'DESTRA'
p64
ssg38
I0
sg39
I0
sg40
I0
sg41
I0
sg42
g63
sg43
I0
sg44
I0
sg45
I0
sg46
I0
sg47
I0
sg48
g64
sbsS'hero2'
p65
g0
(c__main__
WhiteMage
p66
g2
Ntp67
Rp68
(dp69
g23
(dp70
g25
I0
sg26
I0
sg27
I0
sg28
I0
sg29
S'WhiteMage'
p71
sg31
I0
sg32
I0
sg33
I0
sg34
I0
sg35
I0
sg36
S'JJJJJJ'
p72
ssg38
I0
sg39
I0
sg40
I0
sg41
I0
sg42
g71
sg43
I0
sg44
I0
sg45
I0
sg46
I0
sg47
I0
sg48
g72
sbsbsbsS'save2'
p73
g0
(g7
g2
Ntp74
Rp75
(dp76
g11
S'open'
p77
sg13
g0
(g14
g2
Ntp78
Rp79
(dp80
g18
g0
(g19
g2
Ntp81
Rp82
(dp83
g23
(dp84
S'lev'
p85
I0
sS'mdef'
p86
I0
sS'defe'
p87
I0
sS'hp'
p88
I0
sS'job'
p89
S'Theif'
p90
sS'mp'
p91
I0
sS'mag'
p92
I0
sS'exp'
p93
I0
sS'speed'
p94
I0
sS'stre'
p95
I0
sS'name'
p96
S'GET IT'
p97
ssg38
I0
sg39
I0
sg40
I0
sg41
I0
sg42
g90
sg43
I0
sg44
I0
sg45
I0
sg46
I0
sg47
I0
sg48
g97
sbsg49
g0
(g50
g2
Ntp98
Rp99
(dp100
g23
(dp101
g85
I0
sg86
I0
sg87
I0
sg88
I0
sg89
S'Warrior'
p102
sg91
I0
sg92
I0
sg93
I0
sg94
I0
sg95
I0
sg96
S'Stefan'
p103
ssg38
I0
sg39
I0
sg40
I0
sg41
I0
sg42
g102
sg43
I0
sg44
I0
sg45
I0
sg46
I0
sg47
I0
sg48
g103
sbsg57
g0
(g58
g2
Ntp104
Rp105
(dp106
g23
(dp107
g85
I0
sg86
I0
sg87
I0
sg88
I0
sg89
S'BlackMage'
p108
sg91
I0
sg92
I0
sg93
I0
sg94
I0
sg95
I0
sg96
S'MIght'
p109
ssg38
I0
sg39
I0
sg40
I0
sg41
I0
sg42
g108
sg43
I0
sg44
I0
sg45
I0
sg46
I0
sg47
I0
sg48
g109
sbsg65
g0
(g66
g2
Ntp110
Rp111
(dp112
g23
(dp113
g85
I0
sg86
I0
sg87
I0
sg88
I0
sg89
S'WhiteMage'
p114
sg91
I0
sg92
I0
sg93
I0
sg94
I0
sg95
I0
sg96
S'Jenkins'
p115
ssg38
I0
sg39
I0
sg40
I0
sg41
I0
sg42
g114
sg43
I0
sg44
I0
sg45
I0
sg46
I0
sg47
I0
sg48
g115
sbsbsbsS'save3'
p116
g0
(g7
g2
Ntp117
Rp118
(dp119
g11
S'open'
p120
sg13
g0
(g14
g2
Ntp121
Rp122
(dp123
g18
g0
(g19
g2
Ntp124
Rp125
(dp126
g38
I0
sg23
(dp127
g44
I0
sg39
I0
sg40
I0
sg41
I0
sg42
S'Theif'
p128
sg38
I0
sg46
I0
sg48
S'GARCIA'
p129
sg43
I0
sg45
I0
sg47
I0
ssg40
I0
sg39
I0
sg41
I0
sg42
g128
sg43
I0
sg44
I0
sg45
I0
sg46
I0
sg47
I0
sg48
g129
sbsg49
g0
(g50
g2
Ntp130
Rp131
(dp132
g38
I0
sg23
(dp133
g44
I0
sg39
I0
sg40
I0
sg41
I0
sg42
S'Warrior'
p134
sg38
I0
sg46
I0
sg48
S'STEFAN'
p135
sg43
I0
sg45
I0
sg47
I0
ssg40
I0
sg39
I0
sg41
I0
sg42
g134
sg43
I0
sg44
I0
sg45
I0
sg46
I0
sg47
I0
sg48
g135
sbsg57
g0
(g58
g2
Ntp136
Rp137
(dp138
g38
I0
sg23
(dp139
g44
I0
sg39
I0
sg40
I0
sg41
I0
sg42
S'BlackMage'
p140
sg38
I0
sg46
I0
sg48
S'DESTRA'
p141
sg43
I0
sg45
I0
sg47
I0
ssg40
I0
sg39
I0
sg41
I0
sg42
g140
sg43
I0
sg44
I0
sg45
I0
sg46
I0
sg47
I0
sg48
g141
sbsg65
g0
(g66
g2
Ntp142
Rp143
(dp144
g38
I0
sg23
(dp145
g44
I0
sg39
I0
sg40
I0
sg41
I0
sg42
S'WhiteMage'
p146
sg38
I0
sg46
I0
sg48
S'JJJJJJ'
p147
sg43
I0
sg45
I0
sg47
I0
ssg40
I0
sg39
I0
sg41
I0
sg42
g146
sg43
I0
sg44
I0
sg45
I0
sg46
I0
sg47
I0
sg48
g147
sbsbsbsb.