ccopy_reg
_reconstructor
p0
(c__main__
MemoryCard
p1
c__builtin__
object
p2
Ntp3
Rp4
(dp5
S'save1'
p6
g0
(c__main__
Save
p7
g2
Ntp8
Rp9
(dp10
S'scene_name'
p11
S'open'
p12
sS'party'
p13
g0
(c__main__
Party
p14
g2
Ntp15
Rp16
(dp17
S'hero4'
p18
g0
(c__main__
Theif
p19
g2
Ntp20
Rp21
(dp22
S'acc'
p23
NsS'stats'
p24
(dp25
S'lev'
p26
I0
sS'mdef'
p27
I0
sS'defe'
p28
I0
sS'hp'
p29
I0
sS'job'
p30
S'Theif'
p31
sS'mp'
p32
I0
sS'mag'
p33
I0
sS'exp'
p34
I0
sS'speed'
p35
I0
sS'stre'
p36
I0
sS'name'
p37
S'Rikku'
p38
ssS'lev'
p39
I0
sS'mdef'
p40
I0
sS'sword'
p41
g0
(c__main__
Equipment
p42
g2
Ntp43
Rp44
(dp45
S'matt'
p46
I0
sS'name'
p47
S'Bronze Sword'
p48
sS'marm'
p49
I0
sS'parm'
p50
I0
sS'mana'
p51
I0
sS'att'
p52
I10
sS'cost'
p53
I100
sS'health'
p54
I0
sbsS'defe'
p55
I0
sS'hp'
p56
I0
sS'chest'
p57
g0
(g42
g2
Ntp58
Rp59
(dp60
g46
I0
sg47
S'Bronze Chestplate'
p61
sg49
I5
sg50
I10
sg51
I0
sg52
I1
sg53
I100
sg54
I0
sbsS'job'
p62
g31
sS'mp'
p63
I0
sS'mag'
p64
I0
sS'helm'
p65
g0
(g42
g2
Ntp66
Rp67
(dp68
g46
I0
sg47
S'Bronze Helm'
p69
sg49
I3
sg50
I5
sg51
I0
sg52
I1
sg53
I100
sg54
I10
sbsS'exp'
p70
I0
sS'speed'
p71
I0
sS'stre'
p72
I0
sg47
g38
sbsS'inv'
p73
g0
(c__main__
Inventory
p74
g2
Ntp75
Rp76
(dp77
S'contents'
p78
(dp79
S'Potion'
p80
I10
sS'Ether'
p81
I5
sS'Hi-Ether'
p82
I1
sS'Hi-Potion'
p83
I1
ssbsS'hero1'
p84
g0
(c__main__
Warrior
p85
g2
Ntp86
Rp87
(dp88
g23
Nsg24
(dp89
g26
I0
sg27
I0
sg28
I0
sg29
I0
sg30
S'Warrior'
p90
sg32
I0
sg33
I0
sg34
I0
sg35
I0
sg36
I0
sg37
S'Tidus'
p91
ssg39
I0
sg40
I0
sg41
g44
sg55
I0
sg56
I0
sg57
g59
sg62
g90
sg63
I0
sg64
I0
sg65
g67
sg70
I0
sg71
I0
sg72
I0
sg47
g91
sbsS'hero3'
p92
g0
(c__main__
BlackMage
p93
g2
Ntp94
Rp95
(dp96
g23
Nsg24
(dp97
g26
I0
sg27
I0
sg28
I0
sg29
I0
sg30
S'BlackMage'
p98
sg32
I0
sg33
I0
sg34
I0
sg35
I0
sg36
I0
sg37
S'Lulu'
p99
ssg39
I0
sg40
I0
sg41
g0
(g42
g2
Ntp100
Rp101
(dp102
g46
I10
sg47
S'Wooden Wand'
p103
sg49
I2
sg50
I0
sg51
I5
sg52
I0
sg53
I100
sg54
I0
sbsg55
I0
sg56
I0
sg57
g0
(g42
g2
Ntp104
Rp105
(dp106
g46
I1
sg47
S'Leather Chestplate'
p107
sg49
I11
sg50
I3
sg51
I0
sg52
I0
sg53
I100
sg54
I3
sbsg62
g98
sg63
I0
sg64
I0
sg65
g0
(g42
g2
Ntp108
Rp109
(dp110
g46
I1
sg47
S'Leather Helm'
p111
sg49
I5
sg50
I3
sg51
I10
sg52
I0
sg53
I100
sg54
I5
sbsg70
I0
sg71
I0
sg72
I0
sg47
g99
sbsS'hero2'
p112
g0
(c__main__
WhiteMage
p113
g2
Ntp114
Rp115
(dp116
g23
Nsg24
(dp117
g26
I0
sg27
I0
sg28
I0
sg29
I0
sg30
S'WhiteMage'
p118
sg32
I0
sg33
I0
sg34
I0
sg35
I0
sg36
I0
sg37
S'Yuna'
p119
ssg39
I0
sg40
I0
sg41
g101
sg55
I0
sg56
I0
sg57
g105
sg62
g118
sg63
I0
sg64
I0
sg65
g109
sg70
I0
sg71
I0
sg72
I0
sg47
g119
sbsbsbsS'save2'
p120
g0
(g7
g2
Ntp121
Rp122
(dp123
g11
S'open'
p124
sg13
g0
(g14
g2
Ntp125
Rp126
(dp127
g18
g0
(g19
g2
Ntp128
Rp129
(dp130
g23
Nsg24
(dp131
S'lev'
p132
I0
sS'mag'
p133
I0
sS'mdef'
p134
I0
sS'hp'
p135
I0
sS'job'
p136
S'Theif'
p137
sS'mp'
p138
I0
sS'defe'
p139
I0
sS'exp'
p140
I0
sS'speed'
p141
I0
sS'stre'
p142
I0
sS'name'
p143
S'Zell'
p144
ssg39
I0
sg40
I0
sg41
g0
(g42
g2
Ntp145
Rp146
(dp147
g46
I0
sg47
S'Bronze Sword'
p148
sg49
I0
sg50
I0
sg51
I0
sg52
I10
sg53
I100
sg54
I0
sbsg55
I0
sg56
I0
sS'maxmp'
p149
I0
sg57
g0
(g42
g2
Ntp150
Rp151
(dp152
g46
I0
sg47
S'Bronze Chestplate'
p153
sg49
I5
sg50
I10
sg51
I0
sg52
I1
sg53
I100
sg54
I0
sbsg62
g137
sg63
I0
sg64
I0
sS'maxhp'
p154
I0
sg65
g0
(g42
g2
Ntp155
Rp156
(dp157
g46
I0
sg47
S'Bronze Helm'
p158
sg49
I3
sg50
I5
sg51
I0
sg52
I1
sg53
I100
sg54
I10
sbsg70
I0
sg71
I0
sg72
I0
sg47
g144
sbsg73
g0
(g74
g2
Ntp159
Rp160
(dp161
g78
(dp162
S'Potion'
p163
I10
sS'Ether'
p164
I5
sS'Hi-Ether'
p165
I1
sS'Hi-Potion'
p166
I1
ssbsg84
g0
(g85
g2
Ntp167
Rp168
(dp169
g23
Nsg24
(dp170
g132
I0
sg133
I0
sg134
I0
sg135
I0
sg136
S'Warrior'
p171
sg138
I0
sg139
I0
sg140
I0
sg141
I0
sg142
I0
sg143
S'Tidus'
p172
ssg39
I0
sg40
I0
sg41
g146
sg55
I0
sg56
I0
sg149
I0
sg57
g151
sg62
g171
sg63
I0
sg64
I0
sg154
I0
sg65
g156
sg70
I0
sg71
I0
sg72
I0
sg47
g172
sbsg92
g0
(g93
g2
Ntp173
Rp174
(dp175
g23
Nsg24
(dp176
g132
I0
sg133
I0
sg134
I0
sg135
I0
sg136
S'BlackMage'
p177
sg138
I0
sg139
I0
sg140
I0
sg141
I0
sg142
I0
sg143
S'Lulu'
p178
ssg39
I0
sg40
I0
sg41
g0
(g42
g2
Ntp179
Rp180
(dp181
g46
I10
sg47
S'Wooden Wand'
p182
sg49
I2
sg50
I0
sg51
I5
sg52
I0
sg53
I100
sg54
I0
sbsg55
I0
sg56
I0
sg149
I0
sg57
g0
(g42
g2
Ntp183
Rp184
(dp185
g46
I1
sg47
S'Leather Chestplate'
p186
sg49
I11
sg50
I3
sg51
I0
sg52
I0
sg53
I100
sg54
I3
sbsg62
g177
sg63
I0
sg64
I0
sg154
I0
sg65
g0
(g42
g2
Ntp187
Rp188
(dp189
g46
I1
sg47
S'Leather Helm'
p190
sg49
I5
sg50
I3
sg51
I10
sg52
I0
sg53
I100
sg54
I5
sbsg70
I0
sg71
I0
sg72
I0
sg47
g178
sbsg112
g0
(g113
g2
Ntp191
Rp192
(dp193
g23
Nsg24
(dp194
g132
I0
sg133
I0
sg134
I0
sg135
I0
sg136
S'WhiteMage'
p195
sg138
I0
sg139
I0
sg140
I0
sg141
I0
sg142
I0
sg143
S'Rinoa'
p196
ssg39
I0
sg40
I0
sg41
g180
sg55
I0
sg56
I0
sg149
I0
sg57
g184
sg62
g195
sg63
I0
sg64
I0
sg154
I0
sg65
g188
sg70
I0
sg71
I0
sg72
I0
sg47
g196
sbsbsbsS'save3'
p197
g0
(g7
g2
Ntp198
Rp199
(dp200
g11
S'open'
p201
sg13
g0
(g14
g2
Ntp202
Rp203
(dp204
g18
g0
(g19
g2
Ntp205
Rp206
(dp207
g39
I0
sg23
Nsg24
(dp208
g64
I0
sg40
I0
sg55
I0
sg56
I0
sg62
S'Theif'
p209
sg39
I0
sg71
I0
sg47
S'Delta'
p210
sg63
I0
sg70
I0
sg72
I0
ssg55
I0
sg40
I0
sg41
g0
(g42
g2
Ntp211
Rp212
(dp213
g46
I0
sg47
S'Bronze Sword'
p214
sg49
I0
sg50
I0
sg51
I0
sg52
I10
sg53
I100
sg54
I0
sbsg56
I0
sg149
I0
sg57
g0
(g42
g2
Ntp215
Rp216
(dp217
g46
I0
sg47
S'Bronze Plate'
p218
sg49
I5
sg50
I10
sg51
I0
sg52
I1
sg53
I100
sg54
I0
sbsg62
g209
sg63
I0
sg64
I0
sg154
I0
sg65
g0
(g42
g2
Ntp219
Rp220
(dp221
g46
I0
sg47
S'Bronze Helm'
p222
sg49
I3
sg50
I5
sg51
I0
sg52
I1
sg53
I100
sg54
I10
sbsg70
I0
sg71
I0
sg72
I0
sg47
g210
sbsg73
g0
(g74
g2
Ntp223
Rp224
(dp225
g78
(dp226
S'Potion'
p227
I10
sS'Hi-Ether'
p228
I1
sS'Ether'
p229
I5
sS'Hi-Potion'
p230
I1
ssbsg84
g0
(g85
g2
Ntp231
Rp232
(dp233
g39
I0
sg23
Nsg24
(dp234
g64
I0
sg40
I0
sg55
I0
sg56
I0
sg62
S'Warrior'
p235
sg39
I0
sg71
I0
sg47
S'Alpha'
p236
sg63
I0
sg70
I0
sg72
I0
ssg55
I0
sg40
I0
sg41
g212
sg56
I0
sg149
I0
sg57
g216
sg62
g235
sg63
I0
sg64
I0
sg154
I0
sg65
g220
sg70
I0
sg71
I0
sg72
I0
sg47
g236
sbsg92
g0
(g93
g2
Ntp237
Rp238
(dp239
g39
I0
sg23
Nsg24
(dp240
g64
I0
sg40
I0
sg55
I0
sg56
I0
sg62
S'BlackMage'
p241
sg39
I0
sg71
I0
sg47
S'Gamma'
p242
sg63
I0
sg70
I0
sg72
I0
ssg55
I0
sg40
I0
sg41
g0
(g42
g2
Ntp243
Rp244
(dp245
g46
I10
sg47
S'Wooden Wand'
p246
sg49
I2
sg50
I0
sg51
I5
sg52
I0
sg53
I100
sg54
I0
sbsg56
I0
sg149
I0
sg57
g0
(g42
g2
Ntp247
Rp248
(dp249
g46
I1
sg47
S'Leather Plate'
p250
sg49
I11
sg50
I3
sg51
I0
sg52
I0
sg53
I100
sg54
I3
sbsg62
g241
sg63
I0
sg64
I0
sg154
I0
sg65
g0
(g42
g2
Ntp251
Rp252
(dp253
g46
I1
sg47
S'Leather Helm'
p254
sg49
I5
sg50
I3
sg51
I10
sg52
I0
sg53
I100
sg54
I5
sbsg70
I0
sg71
I0
sg72
I0
sg47
g242
sbsg112
g0
(g113
g2
Ntp255
Rp256
(dp257
g39
I0
sg23
Nsg24
(dp258
g64
I0
sg40
I0
sg55
I0
sg56
I0
sg62
S'WhiteMage'
p259
sg39
I0
sg71
I0
sg47
S'Beta'
p260
sg63
I0
sg70
I0
sg72
I0
ssg55
I0
sg40
I0
sg41
g244
sg56
I0
sg149
I0
sg57
g248
sg62
g259
sg63
I0
sg64
I0
sg154
I0
sg65
g252
sg70
I0
sg71
I0
sg72
I0
sg47
g260
sbsbsbsb.