ccopy_reg
_reconstructor
p0
(c__main__
MemoryCard
p1
c__builtin__
object
p2
Ntp3
Rp4
(dp5
S'save1'
p6
g0
(c__main__
Save
p7
g2
Ntp8
Rp9
(dp10
S'scene_name'
p11
S'open'
p12
sS'party'
p13
g0
(c__main__
Party
p14
g2
Ntp15
Rp16
(dp17
S'hero4'
p18
g0
(c__main__
Warrior
p19
g2
Ntp20
Rp21
(dp22
S'acc'
p23
NsS'stats'
p24
(dp25
S'lev'
p26
I0
sS'mdef'
p27
I0
sS'defe'
p28
I0
sS'hp'
p29
I0
sS'job'
p30
S'Warrior'
p31
sS'mp'
p32
I0
sS'mag'
p33
I0
sS'exp'
p34
I0
sS'speed'
p35
I0
sS'stre'
p36
I0
sS'name'
p37
S'v27'
p38
ssS'lev'
p39
I1
sS'mdef'
p40
I6
sS'sword'
p41
g0
(c__main__
Equipment
p42
g2
Ntp43
Rp44
(dp45
S'matt'
p46
I0
sS'name'
p47
S'Bronze Sword'
p48
sS'marm'
p49
I0
sS'parm'
p50
I0
sS'mana'
p51
I0
sS'att'
p52
I10
sS'cost'
p53
I100
sS'health'
p54
I0
sbsS'defe'
p55
I8
sS'hp'
p56
I100
sS'maxmp'
p57
I5
sS'chest'
p58
g0
(g42
g2
Ntp59
Rp60
(dp61
g46
I0
sg47
S'Bronze Plate'
p62
sg49
I5
sg50
I10
sg51
I0
sg52
I1
sg53
I100
sg54
I0
sbsS'job'
p63
g31
sS'mp'
p64
I5
sS'mag'
p65
I5
sS'maxhp'
p66
I100
sS'helm'
p67
g0
(g42
g2
Ntp68
Rp69
(dp70
g46
I0
sg47
S'Bronze Helm'
p71
sg49
I3
sg50
I5
sg51
I0
sg52
I1
sg53
I100
sg54
I10
sbsS'exp'
p72
I0
sS'speed'
p73
I10
sS'stre'
p74
I9
sg47
g38
sbsS'inv'
p75
g0
(c__main__
Inventory
p76
g2
Ntp77
Rp78
(dp79
S'contents'
p80
(dp81
S'Potion'
p82
I10
sS'Ether'
p83
I5
sS'Hi-Ether'
p84
I1
sS'Hi-Potion'
p85
I1
ssbsS'hero1'
p86
g0
(c__main__
WhiteMage
p87
g2
Ntp88
Rp89
(dp90
g23
Nsg24
(dp91
g26
I0
sg27
I0
sg28
I0
sg29
I0
sg30
S'WhiteMage'
p92
sg32
I0
sg33
I0
sg34
I0
sg35
I0
sg36
I0
sg37
S'Itemsare'
p93
ssg39
I1
sg40
I7
sg41
g0
(g42
g2
Ntp94
Rp95
(dp96
g46
I10
sg47
S'Wooden Wand'
p97
sg49
I2
sg50
I0
sg51
I5
sg52
I0
sg53
I100
sg54
I0
sbsg55
I3
sg56
I60
sg57
I60
sg58
g0
(g42
g2
Ntp98
Rp99
(dp100
g46
I1
sg47
S'Leather Plate'
p101
sg49
I11
sg50
I3
sg51
I0
sg52
I0
sg53
I100
sg54
I3
sbsg63
g92
sg64
I60
sg65
I10
sg66
I60
sg67
g0
(g42
g2
Ntp102
Rp103
(dp104
g46
I1
sg47
S'Leather Helm'
p105
sg49
I5
sg50
I3
sg51
I10
sg52
I0
sg53
I100
sg54
I5
sbsg72
I0
sg73
I10
sg74
I1
sg47
g93
sbsS'hero3'
p106
g0
(c__main__
Theif
p107
g2
Ntp108
Rp109
(dp110
g23
Nsg24
(dp111
g26
I0
sg27
I0
sg28
I0
sg29
I0
sg30
S'Theif'
p112
sg32
I0
sg33
I0
sg34
I0
sg35
I0
sg36
I0
sg37
S'To use'
p113
ssg39
I1
sg40
I6
sg41
g44
sg55
I8
sg56
I80
sg57
I5
sg58
g60
sg63
g112
sg64
I5
sg65
I5
sg66
I80
sg67
g69
sg72
I0
sg73
I12
sg74
I7
sg47
g113
sbsS'hero2'
p114
g0
(c__main__
BlackMage
p115
g2
Ntp116
Rp117
(dp118
g23
Nsg24
(dp119
g26
I0
sg27
I0
sg28
I0
sg29
I0
sg30
S'BlackMage'
p120
sg32
I0
sg33
I0
sg34
I0
sg35
I0
sg36
I0
sg37
S'Fixed'
p121
ssg39
I1
sg40
I7
sg41
g95
sg55
I3
sg56
I60
sg57
I60
sg58
g99
sg63
g120
sg64
I60
sg65
I10
sg66
I60
sg67
g103
sg72
I0
sg73
I10
sg74
I1
sg47
g121
sbsbsbsS'save2'
p122
g0
(g7
g2
Ntp123
Rp124
(dp125
g11
S'open'
p126
sg13
g0
(g14
g2
Ntp127
Rp128
(dp129
g18
g0
(g19
g2
Ntp130
Rp131
(dp132
g23
Nsg24
(dp133
S'lev'
p134
I0
sS'mdef'
p135
I0
sS'defe'
p136
I0
sS'hp'
p137
I0
sS'job'
p138
S'Warrior'
p139
sS'mp'
p140
I0
sS'mag'
p141
I0
sS'exp'
p142
I0
sS'speed'
p143
I0
sS'stre'
p144
I0
sS'name'
p145
S'v27'
p146
ssg39
I1
sg40
I6
sg41
g0
(g42
g2
Ntp147
Rp148
(dp149
g46
I0
sg47
S'Bronze Sword'
p150
sg49
I0
sg50
I0
sg51
I0
sg52
I10
sg53
I100
sg54
I0
sbsg55
I8
sg56
I100
sg57
I5
sg58
g0
(g42
g2
Ntp151
Rp152
(dp153
g46
I0
sg47
S'Bronze Plate'
p154
sg49
I5
sg50
I10
sg51
I0
sg52
I1
sg53
I100
sg54
I0
sbsg63
g139
sg64
I5
sg65
I5
sg66
I100
sg67
g0
(g42
g2
Ntp155
Rp156
(dp157
g46
I0
sg47
S'Bronze Helm'
p158
sg49
I3
sg50
I5
sg51
I0
sg52
I1
sg53
I100
sg54
I10
sbsg72
I0
sg73
I10
sg74
I9
sg47
g146
sbsg75
g0
(g76
g2
Ntp159
Rp160
(dp161
g80
(dp162
S'Potion'
p163
I10
sS'Iron Helm'
p164
I1
sS'Ether'
p165
I5
sS'Hi-Ether'
p166
I1
sS'Hi-Potion'
p167
I1
ssbsg86
g0
(g87
g2
Ntp168
Rp169
(dp170
g23
Nsg24
(dp171
g134
I0
sg135
I0
sg136
I0
sg137
I0
sg138
S'WhiteMage'
p172
sg140
I0
sg141
I0
sg142
I0
sg143
I0
sg144
I0
sg145
S'Itemsare'
p173
ssg39
I1
sg40
I7
sg41
g0
(g42
g2
Ntp174
Rp175
(dp176
g46
I10
sg47
S'Wooden Wand'
p177
sg49
I2
sg50
I0
sg51
I5
sg52
I0
sg53
I100
sg54
I0
sbsg55
I3
sg56
I60
sg57
I60
sg58
g0
(g42
g2
Ntp178
Rp179
(dp180
g46
I1
sg47
S'Leather Plate'
p181
sg49
I11
sg50
I3
sg51
I0
sg52
I0
sg53
I100
sg54
I3
sbsg63
g172
sg64
I60
sg65
I10
sg66
I60
sg67
g0
(g42
g2
Ntp182
Rp183
(dp184
g46
I1
sg47
S'Leather Helm'
p185
sg49
I5
sg50
I3
sg51
I10
sg52
I0
sg53
I100
sg54
I5
sbsg72
I0
sg73
I10
sg74
I1
sg47
g173
sbsg106
g0
(g107
g2
Ntp186
Rp187
(dp188
g23
Nsg24
(dp189
g134
I0
sg135
I0
sg136
I0
sg137
I0
sg138
S'Theif'
p190
sg140
I0
sg141
I0
sg142
I0
sg143
I0
sg144
I0
sg145
S'To use'
p191
ssg39
I1
sg40
I6
sg41
g148
sg55
I8
sg56
I80
sg57
I5
sg58
g152
sg63
g190
sg64
I5
sg65
I5
sg66
I80
sg67
g156
sg72
I0
sg73
I12
sg74
I7
sg47
g191
sbsg114
g0
(g115
g2
Ntp192
Rp193
(dp194
g23
Nsg24
(dp195
g134
I0
sg135
I0
sg136
I0
sg137
I0
sg138
S'BlackMage'
p196
sg140
I0
sg141
I0
sg142
I0
sg143
I0
sg144
I0
sg145
S'Fixed'
p197
ssg39
I1
sg40
I7
sg41
g175
sg55
I3
sg56
I60
sg57
I60
sg58
g179
sg63
g196
sg64
I60
sg65
I10
sg66
I60
sg67
g183
sg72
I0
sg73
I10
sg74
I1
sg47
g197
sbsbsbsS'save3'
p198
g0
(g7
g2
Ntp199
Rp200
(dp201
g11
S'open'
p202
sg13
g0
(g14
g2
Ntp203
Rp204
(dp205
g18
g0
(g107
g2
Ntp206
Rp207
(dp208
g39
I1
sg23
Nsg24
(dp209
g65
I0
sg40
I0
sg55
I0
sg56
I0
sg63
S'Theif'
p210
sg39
I0
sg73
I0
sg47
S'AlmostWork'
p211
sg64
I0
sg72
I0
sg74
I0
ssg55
I8
sg40
I6
sg41
g0
(g42
g2
Ntp212
Rp213
(dp214
g46
I0
sg47
S'Bronze Sword'
p215
sg49
I0
sg50
I0
sg51
I0
sg52
I10
sg53
I100
sg54
I0
sS'armortype'
p216
S'wwep'
p217
sbsg56
I80
sg57
I5
sg58
g0
(g42
g2
Ntp218
Rp219
(dp220
g46
I0
sg47
S'Bronze Plate'
p221
sg49
I5
sg50
I10
sg51
I0
sg52
I1
sg53
I100
sg54
I0
sg216
S'wchest'
p222
sbsg63
g210
sg64
I5
sg65
I5
sg66
I80
sg67
g0
(g42
g2
Ntp223
Rp224
(dp225
g46
I0
sg47
S'Bronze Helm'
p226
sg49
I3
sg50
I5
sg51
I0
sg52
I1
sg53
I100
sg54
I10
sg216
S'whelm'
p227
sbsg72
I0
sg73
I12
sg74
I7
sg47
g211
sbsg75
g0
(g76
g2
Ntp228
Rp229
(dp230
g80
(dp231
S'Potion'
p232
I10
sS'Hi-Ether'
p233
I1
sS'Ether'
p234
I5
sS'Hi-Potion'
p235
I1
ssbsg86
g0
(g19
g2
Ntp236
Rp237
(dp238
g39
I1
sg23
Nsg24
(dp239
g65
I0
sg40
I0
sg55
I0
sg56
I0
sg63
S'Warrior'
p240
sg39
I0
sg73
I0
sg47
S'Version33'
p241
sg64
I0
sg72
I0
sg74
I0
ssg55
I8
sg40
I6
sg41
g213
sg56
I100
sg57
I5
sg58
g219
sg63
g240
sg64
I5
sg65
I5
sg66
I100
sg67
g224
sg72
I0
sg73
I10
sg74
I9
sg47
g241
sbsg106
g0
(g115
g2
Ntp242
Rp243
(dp244
g39
I1
sg23
Nsg24
(dp245
g65
I0
sg40
I0
sg55
I0
sg56
I0
sg63
S'BlackMage'
p246
sg39
I0
sg73
I0
sg47
S'Menu'
p247
sg64
I0
sg72
I0
sg74
I0
ssg55
I3
sg40
I7
sg41
g0
(g42
g2
Ntp248
Rp249
(dp250
g46
I10
sg47
S'Wooden Wand'
p251
sg49
I2
sg50
I0
sg51
I5
sg52
I0
sg53
I100
sg54
I0
sg216
S'mwep'
p252
sbsg56
I60
sg57
I60
sg58
g0
(g42
g2
Ntp253
Rp254
(dp255
g46
I1
sg47
S'Leather Plate'
p256
sg49
I11
sg50
I3
sg51
I0
sg52
I0
sg53
I100
sg54
I3
sg216
S'mchest'
p257
sbsg63
g246
sg64
I60
sg65
I10
sg66
I60
sg67
g0
(g42
g2
Ntp258
Rp259
(dp260
g46
I1
sg47
S'Leather Helm'
p261
sg49
I5
sg50
I3
sg51
I10
sg52
I0
sg53
I100
sg54
I5
sg216
S'mhelm'
p262
sbsg72
I0
sg73
I10
sg74
I1
sg47
g247
sbsg114
g0
(g87
g2
Ntp263
Rp264
(dp265
g39
I1
sg23
Nsg24
(dp266
g65
I0
sg40
I0
sg55
I0
sg56
I0
sg63
S'WhiteMage'
p267
sg39
I0
sg73
I0
sg47
S'Equipment'
p268
sg64
I0
sg72
I0
sg74
I0
ssg55
I3
sg40
I7
sg41
g249
sg56
I60
sg57
I60
sg58
g254
sg63
g267
sg64
I60
sg65
I10
sg66
I60
sg67
g259
sg72
I0
sg73
I10
sg74
I1
sg47
g268
sbsbsbsb.