ccopy_reg
_reconstructor
p0
(c__main__
MemoryCard
p1
c__builtin__
object
p2
Ntp3
Rp4
(dp5
S'save1'
p6
g0
(c__main__
Save
p7
g2
Ntp8
Rp9
(dp10
S'scene_name'
p11
S'open'
p12
sS'party'
p13
g0
(c__main__
Party
p14
g2
Ntp15
Rp16
(dp17
S'hero4'
p18
g0
(c__main__
Theif
p19
g2
Ntp20
Rp21
(dp22
S'acc'
p23
NsS'stats'
p24
(dp25
S'lev'
p26
I0
sS'mdef'
p27
I0
sS'mag'
p28
I0
sS'hp'
p29
I0
sS'job'
p30
S'Theif'
p31
sS'mp'
p32
I0
sS'defe'
p33
I0
sS'exp'
p34
I0
sS'speed'
p35
I0
sS'stre'
p36
I0
sS'name'
p37
S'Rikku'
p38
ssS'lev'
p39
I1
sS'mdef'
p40
I6
sS'sword'
p41
g0
(c__main__
Equipment
p42
g2
Ntp43
Rp44
(dp45
S'matt'
p46
I0
sS'name'
p47
S'Bronze Sword'
p48
sS'marm'
p49
I0
sS'parm'
p50
I0
sS'mana'
p51
I0
sS'att'
p52
I10
sS'cost'
p53
I100
sS'health'
p54
I0
sS'armortype'
p55
S'wwep'
p56
sbsS'defe'
p57
I8
sS'hp'
p58
I80
sS'time'
p59
I8
sS'maxmp'
p60
I5
sS'chest'
p61
g0
(g42
g2
Ntp62
Rp63
(dp64
g46
I0
sg47
S'Bronze Plate'
p65
sg49
I5
sg50
I10
sg51
I0
sg52
I1
sg53
I100
sg54
I0
sg55
S'wchest'
p66
sbsS'job'
p67
g31
sS'mp'
p68
I5
sS'mag'
p69
I5
sS'maxhp'
p70
I80
sS'helm'
p71
g0
(g42
g2
Ntp72
Rp73
(dp74
g46
I0
sg47
S'Bronze Helm'
p75
sg49
I3
sg50
I5
sg51
I0
sg52
I1
sg53
I100
sg54
I10
sg55
S'whelm'
p76
sbsS'exp'
p77
I100
sS'speed'
p78
I12
sS'stre'
p79
I7
sg47
g38
sbsS'inv'
p80
g0
(c__main__
Inventory
p81
g2
Ntp82
Rp83
(dp84
S'contents'
p85
(dp86
S'Potion'
p87
I10
sS'Iron Helm'
p88
I1
sS'Hi-Ether'
p89
I1
sS'Iron Chest'
p90
I1
sS'Hi-Potion'
p91
I1
sS'Ether'
p92
I5
ssbsS'hero1'
p93
g0
(c__main__
Warrior
p94
g2
Ntp95
Rp96
(dp97
g23
Nsg24
(dp98
g26
I0
sg27
I0
sg28
I0
sg29
I0
sg30
S'Warrior'
p99
sg32
I0
sg33
I0
sg34
I0
sg35
I0
sg36
I0
sg37
S'Tidus'
p100
ssg39
I1
sg40
I6
sg41
g44
sg57
I8
sg58
I100
sg59
I10
sg60
I5
sg61
g63
sg67
g99
sg68
I5
sg69
I5
sg70
I100
sg71
g73
sg77
I100
sg78
I10
sg79
I9
sg47
g100
sbsS'hero3'
p101
g0
(c__main__
BlackMage
p102
g2
Ntp103
Rp104
(dp105
g23
Nsg24
(dp106
g26
I0
sg27
I0
sg28
I0
sg29
I0
sg30
S'BlackMage'
p107
sg32
I0
sg33
I0
sg34
I0
sg35
I0
sg36
I0
sg37
S'Lulu'
p108
ssg39
I1
sg40
I7
sg41
g0
(g42
g2
Ntp109
Rp110
(dp111
g46
I10
sg47
S'Wooden Wand'
p112
sg49
I2
sg50
I0
sg51
I5
sg52
I3
sg53
I100
sg54
I0
sg55
S'mwep'
p113
sbsg57
I3
sg58
I60
sg59
I10
sg60
I60
sg61
g0
(g42
g2
Ntp114
Rp115
(dp116
g46
I1
sg47
S'Leather Plate'
p117
sg49
I11
sg50
I7
sg51
I0
sg52
I0
sg53
I100
sg54
I3
sg55
S'mchest'
p118
sbsg67
g107
sg68
I60
sg69
I10
sg70
I60
sg71
g0
(g42
g2
Ntp119
Rp120
(dp121
g46
I1
sg47
S'Leather Helm'
p122
sg49
I5
sg50
I5
sg51
I10
sg52
I0
sg53
I100
sg54
I5
sg55
S'mhelm'
p123
sbsg77
I100
sg78
I10
sg79
I1
sg47
g108
sbsS'hero2'
p124
g0
(c__main__
WhiteMage
p125
g2
Ntp126
Rp127
(dp128
g23
Nsg24
(dp129
g26
I0
sg27
I0
sg28
I0
sg29
I0
sg30
S'WhiteMage'
p130
sg32
I0
sg33
I0
sg34
I0
sg35
I0
sg36
I0
sg37
S'Yuna'
p131
ssg39
I1
sg40
I7
sg41
g110
sg57
I3
sg58
I60
sg59
I10
sg60
I60
sg61
g115
sg67
g130
sg68
I60
sg69
I10
sg70
I60
sg71
g120
sg77
I100
sg78
I10
sg79
I1
sg47
g131
sbsbsbsS'save2'
p132
g0
(g7
g2
Ntp133
Rp134
(dp135
g11
S'open'
p136
sg13
g0
(g14
g2
Ntp137
Rp138
(dp139
g80
g0
(g81
g2
Ntp140
Rp141
(dp142
g85
(dp143
S'Potion'
p144
I10
sS'Ether'
p145
I5
sS'Hi-Ether'
p146
I1
sS'Hi-Potion'
p147
I1
ssbsg18
g0
(g19
g2
Ntp148
Rp149
(dp150
g23
Nsg24
(dp151
S'lev'
p152
I0
sS'mag'
p153
I0
sS'mdef'
p154
I0
sS'hp'
p155
I0
sS'job'
p156
S'Theif'
p157
sS'mp'
p158
I0
sS'defe'
p159
I0
sS'exp'
p160
I0
sS'speed'
p161
I0
sS'stre'
p162
I0
sS'name'
p163
S'Boko'
p164
ssg39
I1
sg40
I6
sg41
g0
(g42
g2
Ntp165
Rp166
(dp167
g46
I0
sg47
S'Bronze Sword'
p168
sg49
I0
sg50
I0
sg51
I0
sg52
I10
sg53
I100
sg54
I0
sg55
S'wwep'
p169
sbsg57
I8
sg58
I80
sg59
I8
sg60
I5
sg61
g0
(g42
g2
Ntp170
Rp171
(dp172
g46
I0
sg47
S'Bronze Plate'
p173
sg49
I5
sg50
I10
sg51
I0
sg52
I1
sg53
I100
sg54
I0
sg55
S'wchest'
p174
sbsg67
g157
sg68
I5
sg69
I5
sg70
I80
sg71
g0
(g42
g2
Ntp175
Rp176
(dp177
g46
I0
sg47
S'Bronze Helm'
p178
sg49
I3
sg50
I5
sg51
I0
sg52
I1
sg53
I100
sg54
I10
sg55
S'whelm'
p179
sbsg77
I100
sg78
I12
sg79
I7
sg47
g164
sbsg93
g0
(g94
g2
Ntp180
Rp181
(dp182
g23
Nsg24
(dp183
g152
I0
sg153
I0
sg154
I0
sg155
I0
sg156
S'Warrior'
p184
sg158
I0
sg159
I0
sg160
I0
sg161
I0
sg162
I0
sg163
S'Butz'
p185
ssg39
I1
sg40
I6
sg41
g166
sg57
I8
sg58
I100
sg59
I10
sg60
I5
sg61
g171
sg67
g184
sg68
I5
sg69
I5
sg70
I100
sg71
g176
sg77
I100
sg78
I10
sg79
I9
sg47
g185
sbsg101
g0
(g102
g2
Ntp186
Rp187
(dp188
g23
Nsg24
(dp189
g152
I0
sg153
I0
sg154
I0
sg155
I0
sg156
S'BlackMage'
p190
sg158
I0
sg159
I0
sg160
I0
sg161
I0
sg162
I0
sg163
S'Telluh'
p191
ssg39
I1
sg40
I7
sg41
g0
(g42
g2
Ntp192
Rp193
(dp194
g46
I10
sg47
S'Wooden Wand'
p195
sg49
I2
sg50
I0
sg51
I5
sg52
I3
sg53
I100
sg54
I0
sg55
S'mwep'
p196
sbsg57
I3
sg58
I60
sg59
I10
sg60
I60
sg61
g0
(g42
g2
Ntp197
Rp198
(dp199
g46
I1
sg47
S'Leather Plate'
p200
sg49
I11
sg50
I7
sg51
I0
sg52
I0
sg53
I100
sg54
I3
sg55
S'mchest'
p201
sbsg67
g190
sg68
I60
sg69
I10
sg70
I60
sg71
g0
(g42
g2
Ntp202
Rp203
(dp204
g46
I1
sg47
S'Leather Helm'
p205
sg49
I5
sg50
I5
sg51
I10
sg52
I0
sg53
I100
sg54
I5
sg55
S'mhelm'
p206
sbsg77
I100
sg78
I10
sg79
I1
sg47
g191
sbsg124
g0
(g125
g2
Ntp207
Rp208
(dp209
g23
Nsg24
(dp210
g152
I0
sg153
I0
sg154
I0
sg155
I0
sg156
S'WhiteMage'
p211
sg158
I0
sg159
I0
sg160
I0
sg161
I0
sg162
I0
sg163
S'Lenna'
p212
ssg39
I1
sg40
I7
sg41
g193
sg57
I3
sg58
I60
sg59
I10
sg60
I60
sg61
g198
sg67
g211
sg68
I60
sg69
I10
sg70
I60
sg71
g203
sg77
I100
sg78
I10
sg79
I1
sg47
g212
sbsS'gil'
p213
I50
sbsbsS'save3'
p214
g0
(g7
g2
Ntp215
Rp216
(dp217
g11
S'field_0_1'
p218
sg13
g0
(g14
g2
Ntp219
Rp220
(dp221
g80
g0
(g81
g2
Ntp222
Rp223
(dp224
g85
(dp225
S'Potion'
p226
I10
sS'Hi-Ether'
p227
I1
sS'Ether'
p228
I5
sS'Hi-Potion'
p229
I1
ssbsg18
g0
(g19
g2
Ntp230
Rp231
(dp232
g39
I1
sg23
Nsg24
(dp233
g69
I0
sg40
I0
sg57
I0
sg58
I0
sg67
S'Theif'
p234
sg39
I0
sg78
I0
sg47
S'Boko'
p235
sg68
I0
sg77
I0
sg79
I0
ssg57
I8
sg40
I6
sg41
g0
(g42
g2
Ntp236
Rp237
(dp238
g46
I0
sg47
S'Bronze Sword'
p239
sg49
I0
sg50
I0
sg51
I0
sg52
I10
sg53
I100
sg54
I0
sg55
S'wwep'
p240
sbsg58
I80
sg59
I8
sg60
I5
sg61
g0
(g42
g2
Ntp241
Rp242
(dp243
g46
I0
sg47
S'Bronze Plate'
p244
sg49
I5
sg50
I10
sg51
I0
sg52
I1
sg53
I100
sg54
I0
sg55
S'wchest'
p245
sbsg67
g234
sg68
I5
sg69
I5
sg70
I80
sg71
g0
(g42
g2
Ntp246
Rp247
(dp248
g46
I0
sg47
S'Bronze Helm'
p249
sg49
I3
sg50
I5
sg51
I0
sg52
I1
sg53
I100
sg54
I10
sg55
S'whelm'
p250
sbsg77
I100
sg78
I12
sg79
I7
sg47
g235
sbsg93
g0
(g94
g2
Ntp251
Rp252
(dp253
g39
I1
sg23
Nsg24
(dp254
g69
I0
sg40
I0
sg57
I0
sg58
I0
sg67
S'Warrior'
p255
sg39
I0
sg78
I0
sg47
S'Butz'
p256
sg68
I0
sg77
I0
sg79
I0
ssg57
I8
sg40
I6
sg41
g237
sg58
I100
sg59
I10
sg60
I5
sg61
g242
sg67
g255
sg68
I5
sg69
I5
sg70
I100
sg71
g247
sg77
I100
sg78
I10
sg79
I9
sg47
g256
sbsg101
g0
(g102
g2
Ntp257
Rp258
(dp259
g39
I1
sg23
Nsg24
(dp260
g69
I0
sg40
I0
sg57
I0
sg58
I0
sg67
S'BlackMage'
p261
sg39
I0
sg78
I0
sg47
S'Telluh'
p262
sg68
I0
sg77
I0
sg79
I0
ssg57
I3
sg40
I7
sg41
g0
(g42
g2
Ntp263
Rp264
(dp265
g46
I10
sg47
S'Wooden Wand'
p266
sg49
I2
sg50
I0
sg51
I5
sg52
I3
sg53
I100
sg54
I0
sg55
S'mwep'
p267
sbsg58
I60
sg59
I10
sg60
I60
sg61
g0
(g42
g2
Ntp268
Rp269
(dp270
g46
I1
sg47
S'Leather Plate'
p271
sg49
I11
sg50
I7
sg51
I0
sg52
I0
sg53
I100
sg54
I3
sg55
S'mchest'
p272
sbsg67
g261
sg68
I60
sg69
I10
sg70
I60
sg71
g0
(g42
g2
Ntp273
Rp274
(dp275
g46
I1
sg47
S'Leather Helm'
p276
sg49
I5
sg50
I5
sg51
I10
sg52
I0
sg53
I100
sg54
I5
sg55
S'mhelm'
p277
sbsg77
I100
sg78
I10
sg79
I1
sg47
g262
sbsg124
g0
(g125
g2
Ntp278
Rp279
(dp280
g39
I1
sg23
Nsg24
(dp281
g69
I0
sg40
I0
sg57
I0
sg58
I0
sg67
S'WhiteMage'
p282
sg39
I0
sg78
I0
sg47
S'Lenna'
p283
sg68
I0
sg77
I0
sg79
I0
ssg57
I3
sg40
I7
sg41
g264
sg58
I60
sg59
I10
sg60
I60
sg61
g269
sg67
g282
sg68
I60
sg69
I10
sg70
I60
sg71
g274
sg77
I100
sg78
I10
sg79
I1
sg47
g283
sbsg213
I50
sbsbsb.