ccopy_reg
_reconstructor
p0
(c__main__
MemoryCard
p1
c__builtin__
object
p2
Ntp3
Rp4
(dp5
S'save1'
p6
g0
(c__main__
Save
p7
g2
Ntp8
Rp9
(dp10
S'scene_name'
p11
S'open'
p12
sS'party'
p13
g0
(c__main__
Party
p14
g2
Ntp15
Rp16
(dp17
S'inv'
p18
g0
(c__main__
Inventory
p19
g2
Ntp20
Rp21
(dp22
S'contents'
p23
(dp24
S'Potion'
p25
I10
sS'Hi-Ether'
p26
I1
sS'Ether'
p27
I5
sS'Hi-Potion'
p28
I1
ssbsS'hero4'
p29
g0
(c__main__
Theif
p30
g2
Ntp31
Rp32
(dp33
S'lev'
p34
I1
sS'acc'
p35
NsS'stats'
p36
(dp37
S'mag'
p38
I0
sS'mdef'
p39
I0
sS'defe'
p40
I0
sS'hp'
p41
I0
sS'job'
p42
S'Theif'
p43
sg34
I0
sS'speed'
p44
I0
sS'name'
p45
S'Zidane'
p46
sS'mp'
p47
I0
sS'exp'
p48
I0
sS'stre'
p49
I0
ssg40
I8
sg39
I6
sS'sword'
p50
g0
(c__main__
Equipment
p51
g2
Ntp52
Rp53
(dp54
S'matt'
p55
I0
sg45
S'Bronze Sword'
p56
sS'marm'
p57
I0
sS'parm'
p58
I0
sS'mana'
p59
I0
sS'att'
p60
I10
sS'cost'
p61
I100
sS'health'
p62
I0
sS'armortype'
p63
S'wwep'
p64
sbsg41
I80
sS'time'
p65
I8
sS'maxmp'
p66
I5
sS'chest'
p67
g0
(g51
g2
Ntp68
Rp69
(dp70
g55
I0
sg45
S'Bronze Plate'
p71
sg57
I5
sg58
I10
sg59
I0
sg60
I1
sg61
I100
sg62
I0
sg63
S'wchest'
p72
sbsg42
g43
sg47
I5
sg38
I5
sS'maxhp'
p73
I80
sS'helm'
p74
g0
(g51
g2
Ntp75
Rp76
(dp77
g55
I0
sg45
S'Bronze Helm'
p78
sg57
I3
sg58
I5
sg59
I0
sg60
I1
sg61
I100
sg62
I10
sg63
S'whelm'
p79
sbsg48
I100
sS'spells'
p80
(lp81
sg44
I12
sg49
I7
sg45
g46
sbsS'hero1'
p82
g0
(c__main__
Warrior
p83
g2
Ntp84
Rp85
(dp86
g34
I1
sg35
Nsg36
(dp87
g38
I0
sg39
I0
sg40
I0
sg41
I0
sg42
S'Warrior'
p88
sg34
I0
sg44
I0
sg45
S'Steiner'
p89
sg47
I0
sg48
I0
sg49
I0
ssg40
I8
sg39
I6
sg50
g53
sg41
I100
sg65
I10
sg66
I5
sg67
g69
sg42
g88
sg47
I5
sg38
I5
sg73
I100
sg74
g76
sg48
I100
sg80
(lp90
sg44
I10
sg49
I9
sg45
g89
sbsS'hero3'
p91
g0
(c__main__
BlackMage
p92
g2
Ntp93
Rp94
(dp95
g34
I1
sg35
Nsg36
(dp96
g38
I0
sg39
I0
sg40
I0
sg41
I0
sg42
S'BlackMage'
p97
sg34
I0
sg44
I0
sg45
S'Vivi'
p98
sg47
I0
sg48
I0
sg49
I0
ssg40
I3
sg39
I7
sg50
g0
(g51
g2
Ntp99
Rp100
(dp101
g55
I10
sg45
S'Wooden Wand'
p102
sg57
I2
sg58
I0
sg59
I5
sg60
I3
sg61
I100
sg62
I0
sg63
S'mwep'
p103
sbsg41
I60
sg65
I10
sg66
I60
sg67
g0
(g51
g2
Ntp104
Rp105
(dp106
g55
I1
sg45
S'Leather Plate'
p107
sg57
I11
sg58
I7
sg59
I0
sg60
I0
sg61
I100
sg62
I3
sg63
S'mchest'
p108
sbsg42
g97
sg47
I60
sg38
I10
sg73
I60
sg74
g0
(g51
g2
Ntp109
Rp110
(dp111
g55
I1
sg45
S'Leather Helm'
p112
sg57
I5
sg58
I5
sg59
I10
sg60
I0
sg61
I100
sg62
I5
sg63
S'mhelm'
p113
sbsg48
I100
sg80
(lp114
g0
(c__main__
Spell
p115
g2
Ntp116
Rp117
(dp118
S'foe_target'
p119
S'foe'
p120
sS'potency'
p121
I10
sS'damage_type'
p122
S'magical'
p123
sg45
S'Fire'
p124
sg47
I5
sS'desc'
p125
S'Deals a small amount of fire damage.'
p126
sbasg44
I10
sg49
I1
sg45
g98
sbsS'hero2'
p127
g0
(c__main__
WhiteMage
p128
g2
Ntp129
Rp130
(dp131
g34
I1
sg35
Nsg36
(dp132
g38
I0
sg39
I0
sg40
I0
sg41
I0
sg42
S'WhiteMage'
p133
sg34
I0
sg44
I0
sg45
S'Eiko'
p134
sg47
I0
sg48
I0
sg49
I0
ssg40
I3
sg39
I7
sg50
g100
sg41
I60
sg65
I10
sg66
I60
sg67
g105
sg42
g133
sg47
I60
sg38
I10
sg73
I60
sg74
g110
sg48
I100
sg80
(lp135
g0
(g115
g2
Ntp136
Rp137
(dp138
g119
S'friend'
p139
sg121
I10
sg122
g123
sg45
S'Cure'
p140
sg47
I5
sg125
S'Restores a small amount of HP'
p141
sbasg44
I10
sg49
I1
sg45
g134
sbsS'gil'
p142
I50
sbsbsS'save2'
p143
g0
(g7
g2
Ntp144
Rp145
(dp146
g11
S'open'
p147
sg13
g0
(g14
g2
Ntp148
Rp149
(dp150
g18
g0
(g19
g2
Ntp151
Rp152
(dp153
g23
(dp154
S'Potion'
p155
I10
sS'Ether'
p156
I5
sS'Hi-Ether'
p157
I1
sS'Hi-Potion'
p158
I1
ssbsg29
g0
(g30
g2
Ntp159
Rp160
(dp161
g35
Nsg36
(dp162
S'lev'
p163
I0
sS'mag'
p164
I0
sS'mdef'
p165
I0
sS'hp'
p166
I0
sS'job'
p167
S'Theif'
p168
sS'mp'
p169
I0
sS'defe'
p170
I0
sS'exp'
p171
I0
sS'speed'
p172
I0
sS'stre'
p173
I0
sS'name'
p174
S'Zidane'
p175
ssg34
I1
sg39
I6
sg50
g0
(g51
g2
Ntp176
Rp177
(dp178
g55
I0
sg45
S'Bronze Sword'
p179
sg57
I0
sg58
I0
sg59
I0
sg60
I10
sg61
I100
sg62
I0
sg63
S'wwep'
p180
sbsg40
I8
sg41
I80
sg65
I8
sg66
I5
sg67
g0
(g51
g2
Ntp181
Rp182
(dp183
g55
I0
sg45
S'Bronze Plate'
p184
sg57
I5
sg58
I10
sg59
I0
sg60
I1
sg61
I100
sg62
I0
sg63
S'wchest'
p185
sbsg42
g168
sg47
I5
sg38
I5
sg73
I80
sg74
g0
(g51
g2
Ntp186
Rp187
(dp188
g55
I0
sg45
S'Bronze Helm'
p189
sg57
I3
sg58
I5
sg59
I0
sg60
I1
sg61
I100
sg62
I10
sg63
S'whelm'
p190
sbsg48
I100
sg80
(lp191
sg44
I12
sg49
I7
sg45
g175
sbsg82
g0
(g83
g2
Ntp192
Rp193
(dp194
g35
Nsg36
(dp195
g163
I0
sg164
I0
sg165
I0
sg166
I0
sg167
S'Warrior'
p196
sg169
I0
sg170
I0
sg171
I0
sg172
I0
sg173
I0
sg174
S'Steiner'
p197
ssg34
I1
sg39
I6
sg50
g177
sg40
I8
sg41
I100
sg65
I10
sg66
I5
sg67
g182
sg42
g196
sg47
I5
sg38
I5
sg73
I100
sg74
g187
sg48
I100
sg80
(lp198
sg44
I10
sg49
I9
sg45
g197
sbsg91
g0
(g92
g2
Ntp199
Rp200
(dp201
g35
Nsg36
(dp202
g163
I0
sg164
I0
sg165
I0
sg166
I0
sg167
S'BlackMage'
p203
sg169
I0
sg170
I0
sg171
I0
sg172
I0
sg173
I0
sg174
S'Vivi'
p204
ssg34
I1
sg39
I7
sg50
g0
(g51
g2
Ntp205
Rp206
(dp207
g55
I10
sg45
S'Wooden Wand'
p208
sg57
I2
sg58
I0
sg59
I5
sg60
I3
sg61
I100
sg62
I0
sg63
S'mwep'
p209
sbsg40
I3
sg41
I60
sg65
I10
sg66
I60
sg67
g0
(g51
g2
Ntp210
Rp211
(dp212
g55
I1
sg45
S'Leather Plate'
p213
sg57
I11
sg58
I7
sg59
I0
sg60
I0
sg61
I100
sg62
I3
sg63
S'mchest'
p214
sbsg42
g203
sg47
I60
sg38
I10
sg73
I60
sg74
g0
(g51
g2
Ntp215
Rp216
(dp217
g55
I1
sg45
S'Leather Helm'
p218
sg57
I5
sg58
I5
sg59
I10
sg60
I0
sg61
I100
sg62
I5
sg63
S'mhelm'
p219
sbsg48
I100
sg80
(lp220
g0
(g115
g2
Ntp221
Rp222
(dp223
g119
S'foe'
p224
sg121
I10
sg122
S'magical'
p225
sg45
S'Fire'
p226
sg47
I5
sg125
S'Deals a small amount of fire damage.'
p227
sbasg44
I10
sg49
I1
sg45
g204
sbsg127
g0
(g128
g2
Ntp228
Rp229
(dp230
g35
Nsg36
(dp231
g163
I0
sg164
I0
sg165
I0
sg166
I0
sg167
S'WhiteMage'
p232
sg169
I0
sg170
I0
sg171
I0
sg172
I0
sg173
I0
sg174
S'Eiko'
p233
ssg34
I1
sg39
I7
sg50
g206
sg40
I3
sg41
I60
sg65
I10
sg66
I60
sg67
g211
sg42
g232
sg47
I60
sg38
I10
sg73
I60
sg74
g216
sg48
I100
sg80
(lp234
g0
(g115
g2
Ntp235
Rp236
(dp237
g119
S'friend'
p238
sg121
I10
sg122
g225
sg45
S'Cure'
p239
sg47
I5
sg125
S'Restores a small amount of HP'
p240
sbasg44
I10
sg49
I1
sg45
g233
sbsg142
I50
sbsbsS'save3'
p241
g0
(g7
g2
Ntp242
Rp243
(dp244
g11
S'open'
p245
sg13
g0
(g14
g2
Ntp246
Rp247
(dp248
g18
g0
(g19
g2
Ntp249
Rp250
(dp251
g23
(dp252
S'Potion'
p253
I10
sS'Ether'
p254
I5
sS'Hi-Ether'
p255
I1
sS'Hi-Potion'
p256
I1
ssbsg29
g0
(g30
g2
Ntp257
Rp258
(dp259
g35
Nsg36
(dp260
S'lev'
p261
I0
sS'mdef'
p262
I0
sS'defe'
p263
I0
sS'hp'
p264
I0
sS'job'
p265
S'Theif'
p266
sS'mp'
p267
I0
sS'mag'
p268
I0
sS'exp'
p269
I0
sS'speed'
p270
I0
sS'stre'
p271
I0
sS'name'
p272
S'Zidane'
p273
ssg34
I1
sg39
I6
sg50
g0
(g51
g2
Ntp274
Rp275
(dp276
g55
I0
sg45
S'Bronze Sword'
p277
sg57
I0
sg58
I0
sg59
I0
sg60
I10
sg61
I100
sg62
I0
sg63
S'wwep'
p278
sbsg40
I8
sg41
I80
sg65
I8
sg66
I5
sg67
g0
(g51
g2
Ntp279
Rp280
(dp281
g55
I0
sg45
S'Bronze Plate'
p282
sg57
I5
sg58
I10
sg59
I0
sg60
I1
sg61
I100
sg62
I0
sg63
S'wchest'
p283
sbsg42
g266
sg47
I5
sg38
I5
sg73
I80
sg74
g0
(g51
g2
Ntp284
Rp285
(dp286
g55
I0
sg45
S'Bronze Helm'
p287
sg57
I3
sg58
I5
sg59
I0
sg60
I1
sg61
I100
sg62
I10
sg63
S'whelm'
p288
sbsg48
I100
sg80
(lp289
sg44
I12
sg49
I7
sg45
g273
sbsg82
g0
(g83
g2
Ntp290
Rp291
(dp292
g35
Nsg36
(dp293
g261
I0
sg262
I0
sg263
I0
sg264
I0
sg265
S'Warrior'
p294
sg267
I0
sg268
I0
sg269
I0
sg270
I0
sg271
I0
sg272
S'Steiner'
p295
ssg34
I1
sg39
I6
sg50
g275
sg40
I8
sg41
I100
sg65
I10
sg66
I5
sg67
g280
sg42
g294
sg47
I5
sg38
I5
sg73
I100
sg74
g285
sg48
I100
sg80
(lp296
sg44
I10
sg49
I9
sg45
g295
sbsg91
g0
(g92
g2
Ntp297
Rp298
(dp299
g35
Nsg36
(dp300
g261
I0
sg262
I0
sg263
I0
sg264
I0
sg265
S'BlackMage'
p301
sg267
I0
sg268
I0
sg269
I0
sg270
I0
sg271
I0
sg272
S'Vivi'
p302
ssg34
I1
sg39
I7
sg50
g0
(g51
g2
Ntp303
Rp304
(dp305
g55
I10
sg45
S'Wooden Wand'
p306
sg57
I2
sg58
I0
sg59
I5
sg60
I3
sg61
I100
sg62
I0
sg63
S'mwep'
p307
sbsg40
I3
sg41
I60
sg65
I10
sg66
I60
sg67
g0
(g51
g2
Ntp308
Rp309
(dp310
g55
I1
sg45
S'Leather Plate'
p311
sg57
I11
sg58
I7
sg59
I0
sg60
I0
sg61
I100
sg62
I3
sg63
S'mchest'
p312
sbsg42
g301
sg47
I60
sg38
I10
sg73
I60
sg74
g0
(g51
g2
Ntp313
Rp314
(dp315
g55
I1
sg45
S'Leather Helm'
p316
sg57
I5
sg58
I5
sg59
I10
sg60
I0
sg61
I100
sg62
I5
sg63
S'mhelm'
p317
sbsg48
I100
sg80
(lp318
g0
(g115
g2
Ntp319
Rp320
(dp321
g119
S'foe'
p322
sg121
I10
sg122
S'magical'
p323
sg45
S'Fire'
p324
sg47
I5
sg125
S'Deals a small amount of fire damage.'
p325
sbasg44
I10
sg49
I1
sg45
g302
sbsg127
g0
(g128
g2
Ntp326
Rp327
(dp328
g35
Nsg36
(dp329
g261
I0
sg262
I0
sg263
I0
sg264
I0
sg265
S'WhiteMage'
p330
sg267
I0
sg268
I0
sg269
I0
sg270
I0
sg271
I0
sg272
S'Eiko'
p331
ssg34
I1
sg39
I7
sg50
g304
sg40
I3
sg41
I60
sg65
I10
sg66
I60
sg67
g309
sg42
g330
sg47
I60
sg38
I10
sg73
I60
sg74
g314
sg48
I100
sg80
(lp332
g0
(g115
g2
Ntp333
Rp334
(dp335
g119
S'friend'
p336
sg121
I10
sg122
g323
sg45
S'Cure'
p337
sg47
I5
sg125
S'Restores a small amount of HP'
p338
sbasg44
I10
sg49
I1
sg45
g331
sbsg142
I50
sbsbsb.